target datalayout = "e-m:e-p270:32:32-p271:32:32-p272:64:64-i64:64-i128:128-f80:128-n8:16:32:64-S128"
target triple = "x86_64-unknown-linux-gnu"

; Function Attrs: nounwind uwtable
define internal zeroext i1 @startswith(ptr noundef %p, ptr noundef %q) #4 {
entry:
  %p.addr = alloca ptr, align 8
  %q.addr = alloca ptr, align 8
  store ptr %p, ptr %p.addr, align 8
  store ptr %q, ptr %q.addr, align 8
  %0 = load ptr, ptr %p.addr, align 8
  %1 = load ptr, ptr %q.addr, align 8
  %2 = load ptr, ptr %q.addr, align 8
  %call = call i64 @strlen(ptr noundef %2) #12
  %call1 = call i32 @strncmp(ptr noundef %0, ptr noundef %1, i64 noundef %call) #12
  %cmp = icmp eq i32 %call1, 0
  ret i1 %cmp
}

; Function Attrs: nounwind uwtable
define internal i32 @read_punct(ptr noundef %p) #4 {
entry:
  %retval = alloca i32, align 4
  %p.addr = alloca ptr, align 8
  %i = alloca i32, align 4
  store ptr %p, ptr %p.addr, align 8
  store i32 0, ptr %i, align 4
  br label %for.cond

for.cond:                                         ; preds = %for.inc, %entry
  %0 = load i32, ptr %i, align 4
  %conv = sext i32 %0 to i64
  %cmp = icmp ult i64 %conv, 23
  br i1 %cmp, label %for.body, label %for.end

for.body:                                         ; preds = %for.cond
  %1 = load ptr, ptr %p.addr, align 8
  %2 = load i32, ptr %i, align 4
  %idxprom = sext i32 %2 to i64
  %arrayidx = getelementptr inbounds [23 x ptr], ptr @read_punct.kw, i64 0, i64 %idxprom
  %3 = load ptr, ptr %arrayidx, align 8
  %call = call zeroext i1 @startswith(ptr noundef %1, ptr noundef %3)
  br i1 %call, label %if.then, label %if.end

if.then:                                          ; preds = %for.body
  %4 = load i32, ptr %i, align 4
  %idxprom2 = sext i32 %4 to i64
  %arrayidx3 = getelementptr inbounds [23 x ptr], ptr @read_punct.kw, i64 0, i64 %idxprom2
  %5 = load ptr, ptr %arrayidx3, align 8
  %call4 = call i64 @strlen(ptr noundef %5) #12
  %conv5 = trunc i64 %call4 to i32
  store i32 %conv5, ptr %retval, align 4
  br label %return

if.end:                                           ; preds = %for.body
  br label %for.inc

for.inc:                                          ; preds = %if.end
  %6 = load i32, ptr %i, align 4
  %inc = add nsw i32 %6, 1
  store i32 %inc, ptr %i, align 4
  br label %for.cond, !llvm.loop !18

for.end:                                          ; preds = %for.cond
  %call6 = call ptr @__ctype_b_loc() #16
  %7 = load ptr, ptr %call6, align 8
  %8 = load ptr, ptr %p.addr, align 8
  %9 = load i8, ptr %8, align 1
  %conv7 = sext i8 %9 to i32
  %idxprom8 = sext i32 %conv7 to i64
  %arrayidx9 = getelementptr inbounds i16, ptr %7, i64 %idxprom8
  %10 = load i16, ptr %arrayidx9, align 2
  %conv10 = zext i16 %10 to i32
  %and = and i32 %conv10, 4
  %tobool = icmp ne i32 %and, 0
  %cond = select i1 %tobool, i32 1, i32 0
  store i32 %cond, ptr %retval, align 4
  br label %return

return:                                           ; preds = %for.end, %if.then
  %11 = load i32, ptr %retval, align 4
  ret i32 %11
}