; Function Attrs: nofree nounwind memory(read, inaccessiblemem: none) uwtable
define internal fastcc i32 @read_punct(ptr nocapture noundef readonly %p) unnamed_addr #12 {
entry:
  br label %for.body

for.cond:                                         ; preds = %for.body
  %indvars.iv.next = add nuw nsw i64 %indvars.iv, 1
  %exitcond.not = icmp eq i64 %indvars.iv.next, 23
  br i1 %exitcond.not, label %for.end, label %for.body, !llvm.loop !20

for.body:                                         ; preds = %entry, %for.cond
  %indvars.iv = phi i64 [ 0, %entry ], [ %indvars.iv.next, %for.cond ]
  %arrayidx = getelementptr inbounds [23 x ptr], ptr @read_punct.kw, i64 0, i64 %indvars.iv
  %0 = load ptr, ptr %arrayidx, align 8
  %call.i = tail call i64 @strlen(ptr noundef nonnull dereferenceable(1) %0) #27
  %call1.i = tail call i32 @strncmp(ptr noundef %p, ptr noundef %0, i64 noundef %call.i) #27
  %cmp.i = icmp eq i32 %call1.i, 0
  br i1 %cmp.i, label %if.then, label %for.cond

if.then:                                          ; preds = %for.body
  %conv5 = trunc i64 %call.i to i32
  br label %return

for.end:                                          ; preds = %for.cond
  %call6 = tail call ptr @__ctype_b_loc() #28
  %1 = load ptr, ptr %call6, align 8
  %2 = load i8, ptr %p, align 1
  %idxprom8 = sext i8 %2 to i64
  %arrayidx9 = getelementptr inbounds i16, ptr %1, i64 %idxprom8
  %3 = load i16, ptr %arrayidx9, align 2
  %4 = lshr i16 %3, 2
  %.lobit = and i16 %4, 1
  %cond = zext nneg i16 %.lobit to i32
  br label %return

return:                                           ; preds = %for.end, %if.then
  %retval.0 = phi i32 [ %conv5, %if.then ], [ %cond, %for.end ]
  ret i32 %retval.0
}